target datalayout = "e-m:e-p270:32:32-p271:32:32-p272:64:64-i64:64-i128:128-f80:128-n8:16:32:64-S128"
target triple = "x86_64-pc-linux-gnu"

%struct.uv__io_s = type { ptr, [2 x ptr], [2 x ptr], i32, i32, i32 }
%struct.uv_udp_s = type { ptr, ptr, i32, ptr, [2 x ptr], %union.anon.1, ptr, i32, i64, i64, ptr, ptr, %struct.uv__io_s, [2 x ptr], [2 x ptr] }
%union.anon.1 = type { [4 x ptr] }

; Function Attrs: nounwind uwtable
define dso_local i32 @uv_udp_recv_start(ptr noundef %0, ptr noundef %1, ptr noundef %2) #0 {
  %4 = alloca i32, align 4
  %5 = alloca ptr, align 8
  %6 = alloca ptr, align 8
  %7 = alloca ptr, align 8
  store ptr %0, ptr %5, align 8, !tbaa !53
  store ptr %1, ptr %6, align 8, !tbaa !14
  store ptr %2, ptr %7, align 8, !tbaa !14
  %8 = load ptr, ptr %5, align 8, !tbaa !53
  %9 = getelementptr inbounds nuw %struct.uv_udp_s, ptr %8, i32 0, i32 2
  %10 = load i32, ptr %9, align 8, !tbaa !57
  %11 = icmp ne i32 %10, 15
  br i1 %11, label %18, label %12

12:                                               ; preds = %3
  %13 = load ptr, ptr %6, align 8, !tbaa !14
  %14 = icmp eq ptr %13, null
  br i1 %14, label %18, label %15

15:                                               ; preds = %12
  %16 = load ptr, ptr %7, align 8, !tbaa !14
  %17 = icmp eq ptr %16, null
  br i1 %17, label %18, label %19

18:                                               ; preds = %15, %12, %3
  store i32 -22, ptr %4, align 4
  br label %24

19:                                               ; preds = %15
  %20 = load ptr, ptr %5, align 8, !tbaa !53
  %21 = load ptr, ptr %6, align 8, !tbaa !14
  %22 = load ptr, ptr %7, align 8, !tbaa !14
  %23 = call i32 @uv__udp_recv_start(ptr noundef %20, ptr noundef %21, ptr noundef %22)
  store i32 %23, ptr %4, align 4
  br label %24

24:                                               ; preds = %19, %18
  %25 = load i32, ptr %4, align 4
  ret i32 %25
}