; Function Attrs: nounwind uwtable
define dso_local i32 @uv_udp_recv_start(ptr noundef %0, ptr noundef %1, ptr noundef %2) local_unnamed_addr #0 {
  %4 = getelementptr inbounds nuw i8, ptr %0, i64 16
  %5 = load i32, ptr %4, align 8, !tbaa !38
  %6 = icmp ne i32 %5, 15
  %7 = icmp eq ptr %1, null
  %or.cond = or i1 %7, %6
  %8 = icmp eq ptr %2, null
  %or.cond3 = or i1 %8, %or.cond
  br i1 %or.cond3, label %11, label %9

9:                                                ; preds = %3
  %10 = tail call i32 @uv__udp_recv_start(ptr noundef nonnull %0, ptr noundef nonnull %1, ptr noundef nonnull %2) #26
  br label %11

11:                                               ; preds = %3, %9
  %.0 = phi i32 [ %10, %9 ], [ -22, %3 ]
  ret i32 %.0
}